target datalayout = "e-m:e-p270:32:32-p271:32:32-p272:64:64-i64:64-i128:128-f80:128-n8:16:32:64-S128"
target triple = "x86_64-pc-linux-gnu"

%struct.passwd = type { ptr, ptr, i32, i32, ptr, ptr, ptr }

@.str.10 = private unnamed_addr constant [40 x i8] c"could not look up local user ID %ld: %m\00", align 1
@.str.11 = private unnamed_addr constant [38 x i8] c"local user with ID %ld does not exist\00", align 1
@.str.12 = private unnamed_addr constant [14 x i8] c"out of memory\00", align 1

; Function Attrs: nounwind uwtable
define ptr @pg_fe_getusername(i32 noundef %0, ptr noundef %1) #0 {
  %3 = alloca i32, align 4
  %4 = alloca ptr, align 8
  %5 = alloca ptr, align 8
  %6 = alloca ptr, align 8
  %7 = alloca %struct.passwd, align 8
  %8 = alloca ptr, align 8
  %9 = alloca [1024 x i8], align 16
  %10 = alloca i32, align 4
  store i32 %0, ptr %3, align 4
  store ptr %1, ptr %4, align 8
  call void @llvm.lifetime.start.p0(i64 8, ptr %5) #7
  store ptr null, ptr %5, align 8
  call void @llvm.lifetime.start.p0(i64 8, ptr %6) #7
  store ptr null, ptr %6, align 8
  call void @llvm.lifetime.start.p0(i64 48, ptr %7) #7
  call void @llvm.lifetime.start.p0(i64 8, ptr %8) #7
  store ptr null, ptr %8, align 8
  call void @llvm.lifetime.start.p0(i64 1024, ptr %9) #7
  call void @llvm.lifetime.start.p0(i64 4, ptr %10) #7
  %11 = load i32, ptr %3, align 4
  %12 = getelementptr inbounds [1024 x i8], ptr %9, i64 0, i64 0
  %13 = call i32 @getpwuid_r(i32 noundef %11, ptr noundef %7, ptr noundef %12, i64 noundef 1024, ptr noundef %8)
  store i32 %13, ptr %10, align 4
  %14 = load i32, ptr %10, align 4
  %15 = icmp ne i32 %14, 0
  br i1 %15, label %16, label %26

16:                                               ; preds = %2
  %17 = load i32, ptr %10, align 4
  %18 = call ptr @__errno_location() #10
  store i32 %17, ptr %18, align 4
  %19 = load ptr, ptr %4, align 8
  %20 = icmp ne ptr %19, null
  br i1 %20, label %21, label %25

21:                                               ; preds = %16
  %22 = load ptr, ptr %4, align 8
  %23 = load i32, ptr %3, align 4
  %24 = zext i32 %23 to i64
  call void (ptr, ptr, ...) @libpq_append_error(ptr noundef %22, ptr noundef @.str.10, i64 noundef %24)
  br label %25

25:                                               ; preds = %21, %16
  br label %42

26:                                               ; preds = %2
  %27 = load ptr, ptr %8, align 8
  %28 = icmp ne ptr %27, null
  br i1 %28, label %37, label %29

29:                                               ; preds = %26
  %30 = load ptr, ptr %4, align 8
  %31 = icmp ne ptr %30, null
  br i1 %31, label %32, label %36

32:                                               ; preds = %29
  %33 = load ptr, ptr %4, align 8
  %34 = load i32, ptr %3, align 4
  %35 = zext i32 %34 to i64
  call void (ptr, ptr, ...) @libpq_append_error(ptr noundef %33, ptr noundef @.str.11, i64 noundef %35)
  br label %36

36:                                               ; preds = %32, %29
  br label %41

37:                                               ; preds = %26
  %38 = load ptr, ptr %8, align 8
  %39 = getelementptr inbounds nuw %struct.passwd, ptr %38, i32 0, i32 0
  %40 = load ptr, ptr %39, align 8
  store ptr %40, ptr %6, align 8
  br label %41

41:                                               ; preds = %37, %36
  br label %42

42:                                               ; preds = %41, %25
  %43 = load ptr, ptr %6, align 8
  %44 = icmp ne ptr %43, null
  br i1 %44, label %45, label %56

45:                                               ; preds = %42
  %46 = load ptr, ptr %6, align 8
  %47 = call noalias ptr @strdup(ptr noundef %46) #7
  store ptr %47, ptr %5, align 8
  %48 = load ptr, ptr %5, align 8
  %49 = icmp eq ptr %48, null
  br i1 %49, label %50, label %55

50:                                               ; preds = %45
  %51 = load ptr, ptr %4, align 8
  %52 = icmp ne ptr %51, null
  br i1 %52, label %53, label %55

53:                                               ; preds = %50
  %54 = load ptr, ptr %4, align 8
  call void (ptr, ptr, ...) @libpq_append_error(ptr noundef %54, ptr noundef @.str.12)
  br label %55

55:                                               ; preds = %53, %50, %45
  br label %56

56:                                               ; preds = %55, %42
  %57 = load ptr, ptr %5, align 8
  call void @llvm.lifetime.end.p0(i64 4, ptr %10) #7
  call void @llvm.lifetime.end.p0(i64 1024, ptr %9) #7
  call void @llvm.lifetime.end.p0(i64 8, ptr %8) #7
  call void @llvm.lifetime.end.p0(i64 48, ptr %7) #7
  call void @llvm.lifetime.end.p0(i64 8, ptr %6) #7
  call void @llvm.lifetime.end.p0(i64 8, ptr %5) #7
  ret ptr %57
}