; Function Attrs: nounwind uwtable
define noalias ptr @pg_fe_getusername(i32 noundef %0, ptr noundef %1) local_unnamed_addr #0 {
  %3 = alloca %struct.passwd, align 8
  %4 = alloca ptr, align 8
  %5 = alloca [1024 x i8], align 16
  call void @llvm.lifetime.start.p0(i64 48, ptr nonnull %3) #10
  call void @llvm.lifetime.start.p0(i64 8, ptr nonnull %4) #10
  store ptr null, ptr %4, align 8
  call void @llvm.lifetime.start.p0(i64 1024, ptr nonnull %5) #10
  %6 = call i32 @getpwuid_r(i32 noundef %0, ptr noundef nonnull %3, ptr noundef nonnull %5, i64 noundef 1024, ptr noundef nonnull %4) #10
  %.not = icmp eq i32 %6, 0
  br i1 %.not, label %11, label %7

7:                                                ; preds = %2
  %8 = tail call ptr @__errno_location() #13
  store i32 %6, ptr %8, align 4
  %.not22 = icmp eq ptr %1, null
  br i1 %.not22, label %.thread, label %9

9:                                                ; preds = %7
  %10 = zext i32 %0 to i64
  call void (ptr, ptr, ...) @libpq_append_error(ptr noundef nonnull %1, ptr noundef nonnull @.str.10, i64 noundef %10) #10
  br label %.thread

11:                                               ; preds = %2
  %12 = load ptr, ptr %4, align 8
  %.not20 = icmp eq ptr %12, null
  br i1 %.not20, label %13, label %16

13:                                               ; preds = %11
  %.not21 = icmp eq ptr %1, null
  br i1 %.not21, label %.thread, label %14

14:                                               ; preds = %13
  %15 = zext i32 %0 to i64
  call void (ptr, ptr, ...) @libpq_append_error(ptr noundef nonnull %1, ptr noundef nonnull @.str.11, i64 noundef %15) #10
  br label %.thread

16:                                               ; preds = %11
  %17 = load ptr, ptr %12, align 8
  %.not23 = icmp eq ptr %17, null
  br i1 %.not23, label %.thread, label %18

18:                                               ; preds = %16
  %19 = call noalias ptr @strdup(ptr noundef nonnull %17) #10
  %20 = icmp eq ptr %19, null
  %21 = icmp ne ptr %1, null
  %or.cond = and i1 %21, %20
  br i1 %or.cond, label %22, label %.thread

22:                                               ; preds = %18
  call void (ptr, ptr, ...) @libpq_append_error(ptr noundef nonnull %1, ptr noundef nonnull @.str.12) #10
  br label %.thread

.thread:                                          ; preds = %13, %14, %7, %9, %18, %22, %16
  %.0 = phi ptr [ null, %22 ], [ %19, %18 ], [ null, %16 ], [ null, %9 ], [ null, %7 ], [ null, %14 ], [ null, %13 ]
  call void @llvm.lifetime.end.p0(i64 1024, ptr nonnull %5) #10
  call void @llvm.lifetime.end.p0(i64 8, ptr nonnull %4) #10
  call void @llvm.lifetime.end.p0(i64 48, ptr nonnull %3) #10
  ret ptr %.0
}